target datalayout = "e-m:e-p270:32:32-p271:32:32-p272:64:64-i64:64-i128:128-f80:128-n8:16:32:64-S128"
target triple = "x86_64-pc-linux-gnu"

%struct.PLwdatum = type { ptr, ptr, i8, ptr }

; Function Attrs: nounwind uwtable
define internal zeroext i1 @tok_is_keyword(i32 noundef %0, ptr noundef %1, i32 noundef %2, ptr noundef %3) #0 {
  %5 = alloca i1, align 1
  %6 = alloca i32, align 4
  %7 = alloca ptr, align 8
  %8 = alloca i32, align 4
  %9 = alloca ptr, align 8
  store i32 %0, ptr %6, align 4
  store ptr %1, ptr %7, align 8
  store i32 %2, ptr %8, align 4
  store ptr %3, ptr %9, align 8
  %10 = load i32, ptr %6, align 4
  %11 = load i32, ptr %8, align 4
  %12 = icmp eq i32 %10, %11
  br i1 %12, label %13, label %14

13:                                               ; preds = %4
  store i1 true, ptr %5, align 1
  br label %38

14:                                               ; preds = %4
  %15 = load i32, ptr %6, align 4
  %16 = icmp eq i32 %15, 277
  br i1 %16, label %17, label %36

17:                                               ; preds = %14
  %18 = load ptr, ptr %7, align 8
  %19 = getelementptr inbounds nuw %struct.PLwdatum, ptr %18, i32 0, i32 2
  %20 = load i8, ptr %19, align 8, !range !3, !noundef !4
  %21 = trunc i8 %20 to i1
  br i1 %21, label %35, label %22

22:                                               ; preds = %17
  %23 = load ptr, ptr %7, align 8
  %24 = getelementptr inbounds nuw %struct.PLwdatum, ptr %23, i32 0, i32 1
  %25 = load ptr, ptr %24, align 8
  %26 = icmp ne ptr %25, null
  br i1 %26, label %27, label %35

27:                                               ; preds = %22
  %28 = load ptr, ptr %7, align 8
  %29 = getelementptr inbounds nuw %struct.PLwdatum, ptr %28, i32 0, i32 1
  %30 = load ptr, ptr %29, align 8
  %31 = load ptr, ptr %9, align 8
  %32 = call i32 @strcmp(ptr noundef %30, ptr noundef %31) #11
  %33 = icmp eq i32 %32, 0
  br i1 %33, label %34, label %35

34:                                               ; preds = %27
  store i1 true, ptr %5, align 1
  br label %38

35:                                               ; preds = %27, %22, %17
  br label %36

36:                                               ; preds = %35, %14
  br label %37

37:                                               ; preds = %36
  store i1 false, ptr %5, align 1
  br label %38

38:                                               ; preds = %37, %34, %13
  %39 = load i1, ptr %5, align 1
  ret i1 %39
}