; Function Attrs: mustprogress nofree nounwind willreturn memory(read, inaccessiblemem: none) uwtable
define internal fastcc noundef zeroext i1 @tok_is_keyword(i32 noundef %0, ptr noundef nonnull readonly captures(none) %1, i32 noundef range(i32 280, 384) %2, ptr noundef readonly captures(none) %3) unnamed_addr #8 {
  %5 = icmp eq i32 %0, %2
  br i1 %5, label %19, label %6

6:                                                ; preds = %4
  %7 = icmp eq i32 %0, 277
  br i1 %7, label %8, label %18

8:                                                ; preds = %6
  %9 = getelementptr inbounds nuw i8, ptr %1, i64 16
  %10 = load i8, ptr %9, align 8, !range !3, !noundef !4
  %11 = trunc nuw i8 %10 to i1
  br i1 %11, label %18, label %12

12:                                               ; preds = %8
  %13 = getelementptr inbounds nuw i8, ptr %1, i64 8
  %14 = load ptr, ptr %13, align 8
  %.not = icmp eq ptr %14, null
  br i1 %.not, label %18, label %15

15:                                               ; preds = %12
  %16 = tail call i32 @strcmp(ptr noundef nonnull dereferenceable(1) %14, ptr noundef nonnull dereferenceable(1) %3) #13
  %17 = icmp eq i32 %16, 0
  br i1 %17, label %19, label %18

18:                                               ; preds = %6, %15, %12, %8
  br label %19

19:                                               ; preds = %15, %4, %18
  %.0 = phi i1 [ false, %18 ], [ true, %4 ], [ true, %15 ]
  ret i1 %.0
}